; Function Attrs: nounwind uwtable
define void @Acb_OutputFile(ptr noundef %0, ptr noundef readonly captures(none) %1, ptr noundef readonly %2) local_unnamed_addr #0 {
  %.not = icmp eq ptr %0, null
  %4 = select i1 %.not, ptr @.str.11, ptr %0
  %5 = tail call noalias ptr @fopen(ptr noundef nonnull %4, ptr noundef nonnull @.str.12)
  %6 = icmp eq ptr %5, null
  br i1 %6, label %33, label %7

7:                                                ; preds = %3
  %8 = icmp eq ptr %2, null
  br i1 %8, label %9, label %11

9:                                                ; preds = %7
  %10 = tail call i64 @fwrite(ptr nonnull @.str.14, i64 3, i64 1, ptr nonnull %5)
  br label %.critedge

11:                                               ; preds = %7
  %12 = tail call i64 @fwrite(ptr nonnull @.str.15, i64 4, i64 1, ptr nonnull %5)
  %13 = getelementptr i8, ptr %1, i64 28
  %14 = getelementptr i8, ptr %1, i64 88
  %.val2125 = load i32, ptr %13, align 4
  %.val2226 = load i32, ptr %14, align 8
  %15 = icmp sgt i32 %.val2125, %.val2226
  br i1 %15, label %.lr.ph, label %.critedge

.lr.ph:                                           ; preds = %11
  %16 = getelementptr i8, ptr %1, i64 32
  %17 = getelementptr i8, ptr %1, i64 232
  br label %18

18:                                               ; preds = %.lr.ph, %18
  %indvars.iv = phi i64 [ 0, %.lr.ph ], [ %indvars.iv.next, %18 ]
  %.val = load ptr, ptr %16, align 8
  %19 = getelementptr inbounds nuw i32, ptr %.val, i64 %indvars.iv
  %20 = load i32, ptr %19, align 4
  %.val23 = load ptr, ptr %1, align 8
  %.val24 = load ptr, ptr %17, align 8
  %21 = getelementptr i8, ptr %.val23, i64 16
  %.val23.val = load ptr, ptr %21, align 8
  %22 = sext i32 %20 to i64
  %23 = getelementptr inbounds i32, ptr %.val24, i64 %22
  %24 = load i32, ptr %23, align 4
  %25 = tail call ptr @Abc_NamStr(ptr noundef %.val23.val, i32 noundef %24) #18
  %26 = getelementptr inbounds nuw i32, ptr %2, i64 %indvars.iv
  %27 = load i32, ptr %26, align 4
  %28 = tail call i32 (ptr, ptr, ...) @fprintf(ptr noundef nonnull %5, ptr noundef nonnull @.str.16, ptr noundef %25, i32 noundef %27) #18
  %indvars.iv.next = add nuw nsw i64 %indvars.iv, 1
  %.val21 = load i32, ptr %13, align 4
  %.val22 = load i32, ptr %14, align 8
  %29 = sub nsw i32 %.val21, %.val22
  %30 = sext i32 %29 to i64
  %31 = icmp slt i64 %indvars.iv.next, %30
  br i1 %31, label %18, label %.critedge, !llvm.loop !28

.critedge:                                        ; preds = %18, %11, %9
  %32 = tail call i32 @fclose(ptr noundef nonnull %5)
  br label %33

33:                                               ; preds = %3, %.critedge
  %.str.17.sink = phi ptr [ @.str.17, %.critedge ], [ @.str.13, %3 ]
  %34 = tail call i32 (ptr, ...) @printf(ptr noundef nonnull dereferenceable(1) %.str.17.sink, ptr noundef nonnull %4)
  ret void
}